target datalayout = "e-m:e-p270:32:32-p271:32:32-p272:64:64-i64:64-i128:128-f80:128-n8:16:32:64-S128"
target triple = "x86_64-pc-linux-gnu"

%struct.table_t = type { i64, i64, i64, ptr }
%struct.obj_t = type { %struct.H5O_token_t, ptr, i8, i8 }
%struct.H5O_token_t = type { [16 x i8] }
%struct.find_objs_t = type { i64, ptr, ptr, ptr }
%struct.H5O_info2_t = type { i64, %struct.H5O_token_t, i32, i32, i64, i64, i64, i64, i64 }

; Function Attrs: nounwind willreturn memory(read) uwtable
define ptr @search_obj(ptr noundef %0, ptr noundef %1) #10 {
  %3 = alloca ptr, align 8
  %4 = alloca ptr, align 8
  %5 = alloca ptr, align 8
  %6 = alloca i32, align 4
  %7 = alloca i32, align 4
  store ptr %0, ptr %4, align 8
  store ptr %1, ptr %5, align 8
  store i32 0, ptr %6, align 4
  br label %8

8:                                                ; preds = %41, %2
  %9 = load i32, ptr %6, align 4
  %10 = zext i32 %9 to i64
  %11 = load ptr, ptr %4, align 8
  %12 = getelementptr inbounds %struct.table_t, ptr %11, i32 0, i32 2
  %13 = load i64, ptr %12, align 8
  %14 = icmp ult i64 %10, %13
  br i1 %14, label %15, label %44

15:                                               ; preds = %8
  %16 = load ptr, ptr %4, align 8
  %17 = getelementptr inbounds %struct.table_t, ptr %16, i32 0, i32 0
  %18 = load i64, ptr %17, align 8
  %19 = load ptr, ptr %4, align 8
  %20 = getelementptr inbounds %struct.table_t, ptr %19, i32 0, i32 3
  %21 = load ptr, ptr %20, align 8
  %22 = load i32, ptr %6, align 4
  %23 = zext i32 %22 to i64
  %24 = getelementptr inbounds %struct.obj_t, ptr %21, i64 %23
  %25 = getelementptr inbounds %struct.obj_t, ptr %24, i32 0, i32 0
  %26 = load ptr, ptr %5, align 8
  %27 = call i32 @H5Otoken_cmp(i64 noundef %18, ptr noundef %25, ptr noundef %26, ptr noundef %7)
  %28 = icmp slt i32 %27, 0
  br i1 %28, label %29, label %30

29:                                               ; preds = %15
  store ptr null, ptr %3, align 8
  br label %45

30:                                               ; preds = %15
  %31 = load i32, ptr %7, align 4
  %32 = icmp ne i32 %31, 0
  br i1 %32, label %40, label %33

33:                                               ; preds = %30
  %34 = load ptr, ptr %4, align 8
  %35 = getelementptr inbounds %struct.table_t, ptr %34, i32 0, i32 3
  %36 = load ptr, ptr %35, align 8
  %37 = load i32, ptr %6, align 4
  %38 = zext i32 %37 to i64
  %39 = getelementptr inbounds %struct.obj_t, ptr %36, i64 %38
  store ptr %39, ptr %3, align 8
  br label %45

40:                                               ; preds = %30
  br label %41

41:                                               ; preds = %40
  %42 = load i32, ptr %6, align 4
  %43 = add i32 %42, 1
  store i32 %43, ptr %6, align 4
  br label %8

44:                                               ; preds = %8
  store ptr null, ptr %3, align 8
  br label %45

45:                                               ; preds = %44, %33, %29
  %46 = load ptr, ptr %3, align 8
  ret ptr %46
}

; Function Attrs: nounwind uwtable
define internal i32 @find_objs_cb(ptr noundef %0, ptr noundef %1, ptr noundef %2, ptr noundef %3) #0 {
  %5 = alloca ptr, align 8
  %6 = alloca ptr, align 8
  %7 = alloca ptr, align 8
  %8 = alloca ptr, align 8
  %9 = alloca ptr, align 8
  %10 = alloca i32, align 4
  %11 = alloca i64, align 8
  %12 = alloca i64, align 8
  %13 = alloca %struct.H5O_info2_t, align 8
  %14 = alloca ptr, align 8
  store ptr %0, ptr %5, align 8
  store ptr %1, ptr %6, align 8
  store ptr %2, ptr %7, align 8
  store ptr %3, ptr %8, align 8
  %15 = load ptr, ptr %8, align 8
  store ptr %15, ptr %9, align 8
  store i32 0, ptr %10, align 4
  %16 = load ptr, ptr %6, align 8
  %17 = getelementptr inbounds %struct.H5O_info2_t, ptr %16, i32 0, i32 2
  %18 = load i32, ptr %17, align 8
  switch i32 %18, label %107 [
    i32 0, label %19
    i32 1, label %30
    i32 2, label %76
    i32 3, label %106
    i32 -1, label %106
    i32 4, label %106
  ]

19:                                               ; preds = %4
  %20 = load ptr, ptr %7, align 8
  %21 = icmp eq ptr null, %20
  br i1 %21, label %22, label %29

22:                                               ; preds = %19
  %23 = load ptr, ptr %9, align 8
  %24 = getelementptr inbounds %struct.find_objs_t, ptr %23, i32 0, i32 1
  %25 = load ptr, ptr %24, align 8
  %26 = load ptr, ptr %6, align 8
  %27 = getelementptr inbounds %struct.H5O_info2_t, ptr %26, i32 0, i32 1
  %28 = load ptr, ptr %5, align 8
  call void @add_obj(ptr noundef %25, ptr noundef %27, ptr noundef %28, i1 noundef zeroext true)
  br label %29

29:                                               ; preds = %22, %19
  br label %108

30:                                               ; preds = %4
  %31 = load ptr, ptr %7, align 8
  %32 = icmp eq ptr null, %31
  br i1 %32, label %33, label %75

33:                                               ; preds = %30
  store i64 -1, ptr %11, align 8
  %34 = load ptr, ptr %9, align 8
  %35 = getelementptr inbounds %struct.find_objs_t, ptr %34, i32 0, i32 3
  %36 = load ptr, ptr %35, align 8
  %37 = load ptr, ptr %6, align 8
  %38 = getelementptr inbounds %struct.H5O_info2_t, ptr %37, i32 0, i32 1
  %39 = load ptr, ptr %5, align 8
  call void @add_obj(ptr noundef %36, ptr noundef %38, ptr noundef %39, i1 noundef zeroext true)
  %40 = load ptr, ptr %9, align 8
  %41 = getelementptr inbounds %struct.find_objs_t, ptr %40, i32 0, i32 0
  %42 = load i64, ptr %41, align 8
  %43 = load ptr, ptr %5, align 8
  %44 = call i64 @H5Dopen2(i64 noundef %42, ptr noundef %43, i64 noundef 0)
  store i64 %44, ptr %11, align 8
  %45 = icmp sge i64 %44, 0
  br i1 %45, label %46, label %73

46:                                               ; preds = %33
  %47 = load i64, ptr %11, align 8
  %48 = call i64 @H5Dget_type(i64 noundef %47)
  store i64 %48, ptr %12, align 8
  %49 = load i64, ptr %12, align 8
  %50 = call i32 @H5Tcommitted(i64 noundef %49)
  %51 = icmp sgt i32 %50, 0
  br i1 %51, label %52, label %68

52:                                               ; preds = %46
  %53 = load i64, ptr %12, align 8
  %54 = call i32 @H5Oget_info3(i64 noundef %53, ptr noundef %13, i32 noundef 1)
  %55 = load ptr, ptr %9, align 8
  %56 = getelementptr inbounds %struct.find_objs_t, ptr %55, i32 0, i32 2
  %57 = load ptr, ptr %56, align 8
  %58 = getelementptr inbounds %struct.H5O_info2_t, ptr %13, i32 0, i32 1
  %59 = call ptr @search_obj(ptr noundef %57, ptr noundef %58) #15
  %60 = icmp eq ptr %59, null
  br i1 %60, label %61, label %67

61:                                               ; preds = %52
  %62 = load ptr, ptr %9, align 8
  %63 = getelementptr inbounds %struct.find_objs_t, ptr %62, i32 0, i32 2
  %64 = load ptr, ptr %63, align 8
  %65 = getelementptr inbounds %struct.H5O_info2_t, ptr %13, i32 0, i32 1
  %66 = load ptr, ptr %5, align 8
  call void @add_obj(ptr noundef %64, ptr noundef %65, ptr noundef %66, i1 noundef zeroext false)
  br label %67

67:                                               ; preds = %61, %52
  br label %68

68:                                               ; preds = %67, %46
  %69 = load i64, ptr %12, align 8
  %70 = call i32 @H5Tclose(i64 noundef %69)
  %71 = load i64, ptr %11, align 8
  %72 = call i32 @H5Dclose(i64 noundef %71)
  br label %74

73:                                               ; preds = %33
  store i32 -1, ptr %10, align 4
  br label %74

74:                                               ; preds = %73, %68
  br label %75

75:                                               ; preds = %74, %30
  br label %108

76:                                               ; preds = %4
  %77 = load ptr, ptr %7, align 8
  %78 = icmp eq ptr null, %77
  br i1 %78, label %79, label %105

79:                                               ; preds = %76
  %80 = load ptr, ptr %9, align 8
  %81 = getelementptr inbounds %struct.find_objs_t, ptr %80, i32 0, i32 2
  %82 = load ptr, ptr %81, align 8
  %83 = load ptr, ptr %6, align 8
  %84 = getelementptr inbounds %struct.H5O_info2_t, ptr %83, i32 0, i32 1
  %85 = call ptr @search_obj(ptr noundef %82, ptr noundef %84) #15
  store ptr %85, ptr %14, align 8
  %86 = icmp eq ptr %85, null
  br i1 %86, label %87, label %94

87:                                               ; preds = %79
  %88 = load ptr, ptr %9, align 8
  %89 = getelementptr inbounds %struct.find_objs_t, ptr %88, i32 0, i32 2
  %90 = load ptr, ptr %89, align 8
  %91 = load ptr, ptr %6, align 8
  %92 = getelementptr inbounds %struct.H5O_info2_t, ptr %91, i32 0, i32 1
  %93 = load ptr, ptr %5, align 8
  call void @add_obj(ptr noundef %90, ptr noundef %92, ptr noundef %93, i1 noundef zeroext true)
  br label %104

94:                                               ; preds = %79
  %95 = load ptr, ptr %14, align 8
  %96 = getelementptr inbounds %struct.obj_t, ptr %95, i32 0, i32 1
  %97 = load ptr, ptr %96, align 8
  call void @free(ptr noundef %97) #12
  %98 = load ptr, ptr %5, align 8
  %99 = call noalias ptr @strdup(ptr noundef %98) #12
  %100 = load ptr, ptr %14, align 8
  %101 = getelementptr inbounds %struct.obj_t, ptr %100, i32 0, i32 1
  store ptr %99, ptr %101, align 8
  %102 = load ptr, ptr %14, align 8
  %103 = getelementptr inbounds %struct.obj_t, ptr %102, i32 0, i32 3
  store i8 1, ptr %103, align 1
  br label %104

104:                                              ; preds = %94, %87
  br label %105

105:                                              ; preds = %104, %76
  br label %108

106:                                              ; preds = %4, %4, %4
  br label %107

107:                                              ; preds = %106, %4
  br label %108

108:                                              ; preds = %107, %105, %75, %29
  %109 = load i32, ptr %10, align 4
  ret i32 %109
}