; Function Attrs: nounwind uwtable
define internal range(i32 -1, 1) i32 @find_objs_cb(ptr noundef %0, ptr noundef %1, ptr noundef readnone %2, ptr noundef readonly captures(none) %3) #4 {
  %5 = alloca i32, align 4
  %6 = alloca i32, align 4
  %7 = alloca %struct.H5O_info2_t, align 8
  %8 = getelementptr inbounds nuw i8, ptr %1, i64 24
  %9 = load i32, ptr %8, align 8
  switch i32 %9, label %157 [
    i32 0, label %10
    i32 1, label %39
    i32 2, label %103
  ]

10:                                               ; preds = %4
  %11 = icmp eq ptr %2, null
  br i1 %11, label %12, label %157

12:                                               ; preds = %10
  %13 = getelementptr inbounds nuw i8, ptr %3, i64 8
  %14 = load ptr, ptr %13, align 8
  %15 = getelementptr inbounds nuw i8, ptr %1, i64 8
  %16 = getelementptr inbounds nuw i8, ptr %14, i64 16
  %17 = load i64, ptr %16, align 8
  %18 = getelementptr inbounds nuw i8, ptr %14, i64 8
  %19 = load i64, ptr %18, align 8
  %20 = icmp eq i64 %17, %19
  br i1 %20, label %21, label %._crit_edge.i

._crit_edge.i:                                    ; preds = %12
  %.phi.trans.insert.i = getelementptr inbounds nuw i8, ptr %14, i64 24
  %.pre17.i = load ptr, ptr %.phi.trans.insert.i, align 8
  br label %add_obj.exit

21:                                               ; preds = %12
  %22 = shl i64 %17, 1
  store i64 %22, ptr %18, align 8
  %23 = getelementptr inbounds nuw i8, ptr %14, i64 24
  %24 = load ptr, ptr %23, align 8
  %25 = shl i64 %17, 6
  %26 = tail call ptr @realloc(ptr noundef %24, i64 noundef %25) #29
  store ptr %26, ptr %23, align 8
  %.pre.i = load i64, ptr %16, align 8
  br label %add_obj.exit

add_obj.exit:                                     ; preds = %._crit_edge.i, %21
  %27 = phi ptr [ %26, %21 ], [ %.pre17.i, %._crit_edge.i ]
  %28 = phi i64 [ %.pre.i, %21 ], [ %17, %._crit_edge.i ]
  %29 = add i64 %28, 1
  store i64 %29, ptr %16, align 8
  %30 = getelementptr inbounds nuw i8, ptr %14, i64 24
  %31 = getelementptr inbounds %struct.obj_t, ptr %27, i64 %28
  tail call void @llvm.memcpy.p0.p0.i64(ptr noundef nonnull align 8 dereferenceable(16) %31, ptr noundef nonnull readonly align 1 dereferenceable(16) %15, i64 16, i1 false)
  %32 = tail call noalias ptr @strdup(ptr noundef readonly %0) #23
  %33 = load ptr, ptr %30, align 8
  %34 = getelementptr inbounds %struct.obj_t, ptr %33, i64 %28, i32 1
  store ptr %32, ptr %34, align 8
  %35 = load ptr, ptr %30, align 8
  %36 = getelementptr inbounds %struct.obj_t, ptr %35, i64 %28, i32 3
  store i8 1, ptr %36, align 1
  %37 = load ptr, ptr %30, align 8
  %38 = getelementptr inbounds %struct.obj_t, ptr %37, i64 %28, i32 2
  store i8 0, ptr %38, align 8
  br label %157

39:                                               ; preds = %4
  %40 = icmp eq ptr %2, null
  br i1 %40, label %41, label %157

41:                                               ; preds = %39
  %42 = getelementptr inbounds nuw i8, ptr %3, i64 24
  %43 = load ptr, ptr %42, align 8
  %44 = getelementptr inbounds nuw i8, ptr %1, i64 8
  %45 = getelementptr inbounds nuw i8, ptr %43, i64 16
  %46 = load i64, ptr %45, align 8
  %47 = getelementptr inbounds nuw i8, ptr %43, i64 8
  %48 = load i64, ptr %47, align 8
  %49 = icmp eq i64 %46, %48
  br i1 %49, label %50, label %._crit_edge.i32

._crit_edge.i32:                                  ; preds = %41
  %.phi.trans.insert.i33 = getelementptr inbounds nuw i8, ptr %43, i64 24
  %.pre17.i34 = load ptr, ptr %.phi.trans.insert.i33, align 8
  br label %add_obj.exit36

50:                                               ; preds = %41
  %51 = shl i64 %46, 1
  store i64 %51, ptr %47, align 8
  %52 = getelementptr inbounds nuw i8, ptr %43, i64 24
  %53 = load ptr, ptr %52, align 8
  %54 = shl i64 %46, 6
  %55 = tail call ptr @realloc(ptr noundef %53, i64 noundef %54) #29
  store ptr %55, ptr %52, align 8
  %.pre.i35 = load i64, ptr %45, align 8
  br label %add_obj.exit36

add_obj.exit36:                                   ; preds = %._crit_edge.i32, %50
  %56 = phi ptr [ %55, %50 ], [ %.pre17.i34, %._crit_edge.i32 ]
  %57 = phi i64 [ %.pre.i35, %50 ], [ %46, %._crit_edge.i32 ]
  %58 = add i64 %57, 1
  store i64 %58, ptr %45, align 8
  %59 = getelementptr inbounds nuw i8, ptr %43, i64 24
  %60 = getelementptr inbounds %struct.obj_t, ptr %56, i64 %57
  tail call void @llvm.memcpy.p0.p0.i64(ptr noundef nonnull align 8 dereferenceable(16) %60, ptr noundef nonnull readonly align 1 dereferenceable(16) %44, i64 16, i1 false)
  %61 = tail call noalias ptr @strdup(ptr noundef readonly %0) #23
  %62 = load ptr, ptr %59, align 8
  %63 = getelementptr inbounds %struct.obj_t, ptr %62, i64 %57, i32 1
  store ptr %61, ptr %63, align 8
  %64 = load ptr, ptr %59, align 8
  %65 = getelementptr inbounds %struct.obj_t, ptr %64, i64 %57, i32 3
  store i8 1, ptr %65, align 1
  %66 = load ptr, ptr %59, align 8
  %67 = getelementptr inbounds %struct.obj_t, ptr %66, i64 %57, i32 2
  store i8 0, ptr %67, align 8
  %68 = load i64, ptr %3, align 8
  %69 = tail call i64 @H5Dopen2(i64 noundef %68, ptr noundef %0, i64 noundef 0) #23
  %70 = icmp sgt i64 %69, -1
  br i1 %70, label %71, label %157

71:                                               ; preds = %add_obj.exit36
  %72 = tail call i64 @H5Dget_type(i64 noundef %69) #23
  %73 = tail call i32 @H5Tcommitted(i64 noundef %72) #23
  %74 = icmp sgt i32 %73, 0
  br i1 %74, label %75, label %100

75:                                               ; preds = %71
  %76 = call i32 @H5Oget_info3(i64 noundef %72, ptr noundef nonnull %7, i32 noundef 1) #23
  %77 = getelementptr inbounds nuw i8, ptr %3, i64 16
  %78 = load ptr, ptr %77, align 8
  %79 = getelementptr inbounds nuw i8, ptr %7, i64 8
  call void @llvm.lifetime.start.p0(i64 4, ptr nonnull %6)
  %80 = getelementptr inbounds nuw i8, ptr %78, i64 16
  %81 = load i64, ptr %80, align 8
  %.not15.i = icmp eq i64 %81, 0
  br i1 %.not15.i, label %search_obj.exit.thread, label %.lr.ph.i

.lr.ph.i:                                         ; preds = %75
  %82 = getelementptr inbounds nuw i8, ptr %78, i64 24
  br label %88

83:                                               ; preds = %95
  %84 = add i32 %.013.i, 1
  %85 = zext i32 %84 to i64
  %86 = load i64, ptr %80, align 8
  %87 = icmp ugt i64 %86, %85
  br i1 %87, label %88, label %search_obj.exit.thread

88:                                               ; preds = %83, %.lr.ph.i
  %89 = phi i64 [ 0, %.lr.ph.i ], [ %85, %83 ]
  %.013.i = phi i32 [ 0, %.lr.ph.i ], [ %84, %83 ]
  %90 = load i64, ptr %78, align 8
  %91 = load ptr, ptr %82, align 8
  %92 = getelementptr inbounds nuw %struct.obj_t, ptr %91, i64 %89
  %93 = call i32 @H5Otoken_cmp(i64 noundef %90, ptr noundef %92, ptr noundef nonnull %79, ptr noundef nonnull %6) #23
  %94 = icmp slt i32 %93, 0
  br i1 %94, label %search_obj.exit.thread, label %95

95:                                               ; preds = %88
  %96 = load i32, ptr %6, align 4
  %.not.i = icmp eq i32 %96, 0
  br i1 %.not.i, label %search_obj.exit, label %83

search_obj.exit.thread:                           ; preds = %83, %88, %75
  call void @llvm.lifetime.end.p0(i64 4, ptr nonnull %6)
  br label %99

search_obj.exit:                                  ; preds = %95
  %97 = load ptr, ptr %82, align 8
  call void @llvm.lifetime.end.p0(i64 4, ptr nonnull %6)
  %98 = icmp eq ptr %97, null
  br i1 %98, label %99, label %100

99:                                               ; preds = %search_obj.exit.thread, %search_obj.exit
  call fastcc void @add_obj(ptr noundef nonnull %78, ptr noundef nonnull %79, ptr noundef %0, i1 noundef zeroext false)
  br label %100

100:                                              ; preds = %search_obj.exit, %99, %71
  %101 = call i32 @H5Tclose(i64 noundef %72) #23
  %102 = call i32 @H5Dclose(i64 noundef %69) #23
  br label %157

103:                                              ; preds = %4
  %104 = icmp eq ptr %2, null
  br i1 %104, label %105, label %157

105:                                              ; preds = %103
  %106 = getelementptr inbounds nuw i8, ptr %3, i64 16
  %107 = load ptr, ptr %106, align 8
  %108 = getelementptr inbounds nuw i8, ptr %1, i64 8
  call void @llvm.lifetime.start.p0(i64 4, ptr nonnull %5)
  %109 = getelementptr inbounds nuw i8, ptr %107, i64 16
  %110 = load i64, ptr %109, align 8
  %.not15.i37 = icmp eq i64 %110, 0
  br i1 %.not15.i37, label %search_obj.exit42.thread, label %.lr.ph.i38

.lr.ph.i38:                                       ; preds = %105
  %111 = getelementptr inbounds nuw i8, ptr %107, i64 24
  br label %117

112:                                              ; preds = %124
  %113 = add i32 %.013.i39, 1
  %114 = zext i32 %113 to i64
  %115 = load i64, ptr %109, align 8
  %116 = icmp ugt i64 %115, %114
  br i1 %116, label %117, label %search_obj.exit42.thread

117:                                              ; preds = %112, %.lr.ph.i38
  %118 = phi i64 [ 0, %.lr.ph.i38 ], [ %114, %112 ]
  %.013.i39 = phi i32 [ 0, %.lr.ph.i38 ], [ %113, %112 ]
  %119 = load i64, ptr %107, align 8
  %120 = load ptr, ptr %111, align 8
  %121 = getelementptr inbounds nuw %struct.obj_t, ptr %120, i64 %118
  %122 = call i32 @H5Otoken_cmp(i64 noundef %119, ptr noundef %121, ptr noundef nonnull %108, ptr noundef nonnull %5) #23
  %123 = icmp slt i32 %122, 0
  br i1 %123, label %search_obj.exit42.thread, label %124

124:                                              ; preds = %117
  %125 = load i32, ptr %5, align 4
  %.not.i40 = icmp eq i32 %125, 0
  br i1 %.not.i40, label %search_obj.exit42, label %112

search_obj.exit42.thread:                         ; preds = %112, %117, %105
  call void @llvm.lifetime.end.p0(i64 4, ptr nonnull %5)
  br label %128

search_obj.exit42:                                ; preds = %124
  %126 = load ptr, ptr %111, align 8
  call void @llvm.lifetime.end.p0(i64 4, ptr nonnull %5)
  %127 = icmp eq ptr %126, null
  br i1 %127, label %128, label %151

128:                                              ; preds = %search_obj.exit42.thread, %search_obj.exit42
  %129 = load i64, ptr %109, align 8
  %130 = getelementptr inbounds nuw i8, ptr %107, i64 8
  %131 = load i64, ptr %130, align 8
  %132 = icmp eq i64 %129, %131
  br i1 %132, label %133, label %._crit_edge.i43

._crit_edge.i43:                                  ; preds = %128
  %.phi.trans.insert.i44 = getelementptr inbounds nuw i8, ptr %107, i64 24
  %.pre17.i45 = load ptr, ptr %.phi.trans.insert.i44, align 8
  br label %add_obj.exit47

133:                                              ; preds = %128
  %134 = shl i64 %129, 1
  store i64 %134, ptr %130, align 8
  %135 = getelementptr inbounds nuw i8, ptr %107, i64 24
  %136 = load ptr, ptr %135, align 8
  %137 = shl i64 %129, 6
  %138 = call ptr @realloc(ptr noundef %136, i64 noundef %137) #29
  store ptr %138, ptr %135, align 8
  %.pre.i46 = load i64, ptr %109, align 8
  br label %add_obj.exit47

add_obj.exit47:                                   ; preds = %._crit_edge.i43, %133
  %139 = phi ptr [ %138, %133 ], [ %.pre17.i45, %._crit_edge.i43 ]
  %140 = phi i64 [ %.pre.i46, %133 ], [ %129, %._crit_edge.i43 ]
  %141 = add i64 %140, 1
  store i64 %141, ptr %109, align 8
  %142 = getelementptr inbounds nuw i8, ptr %107, i64 24
  %143 = getelementptr inbounds %struct.obj_t, ptr %139, i64 %140
  call void @llvm.memcpy.p0.p0.i64(ptr noundef nonnull align 8 dereferenceable(16) %143, ptr noundef nonnull readonly align 1 dereferenceable(16) %108, i64 16, i1 false)
  %144 = call noalias ptr @strdup(ptr noundef readonly %0) #23
  %145 = load ptr, ptr %142, align 8
  %146 = getelementptr inbounds %struct.obj_t, ptr %145, i64 %140, i32 1
  store ptr %144, ptr %146, align 8
  %147 = load ptr, ptr %142, align 8
  %148 = getelementptr inbounds %struct.obj_t, ptr %147, i64 %140, i32 3
  store i8 1, ptr %148, align 1
  %149 = load ptr, ptr %142, align 8
  %150 = getelementptr inbounds %struct.obj_t, ptr %149, i64 %140, i32 2
  store i8 0, ptr %150, align 8
  br label %157

151:                                              ; preds = %search_obj.exit42
  %152 = getelementptr inbounds nuw %struct.obj_t, ptr %126, i64 %118
  %153 = getelementptr inbounds nuw i8, ptr %152, i64 16
  %154 = load ptr, ptr %153, align 8
  call void @free(ptr noundef %154) #23
  %155 = call noalias ptr @strdup(ptr noundef %0) #23
  store ptr %155, ptr %153, align 8
  %156 = getelementptr inbounds nuw i8, ptr %152, i64 25
  store i8 1, ptr %156, align 1
  br label %157

157:                                              ; preds = %add_obj.exit36, %4, %103, %151, %add_obj.exit47, %39, %100, %10, %add_obj.exit
  %.0 = phi i32 [ 0, %4 ], [ 0, %add_obj.exit47 ], [ 0, %151 ], [ 0, %103 ], [ 0, %100 ], [ 0, %39 ], [ 0, %add_obj.exit ], [ 0, %10 ], [ -1, %add_obj.exit36 ]
  ret i32 %.0
}